target datalayout = "e-m:e-p270:32:32-p271:32:32-p272:64:64-i64:64-i128:128-f80:128-n8:16:32:64-S128"
target triple = "x86_64-pc-linux-gnu"

%"class.casadi::SXElem" = type { ptr }

; Function Attrs: mustprogress nounwind uwtable
define noundef ptr @_ZNK6casadi6SXElem3getEv(ptr noundef nonnull align 8 dereferenceable(8) %0) #4 align 2 {
  %2 = alloca ptr, align 8
  store ptr %0, ptr %2, align 8
  %3 = load ptr, ptr %2, align 8
  %4 = getelementptr inbounds %"class.casadi::SXElem", ptr %3, i32 0, i32 0
  %5 = load ptr, ptr %4, align 8
  ret ptr %5
}

; Function Attrs: mustprogress uwtable
define noundef zeroext i1 @_ZN6casadi6SXElem8is_equalERKS0_S2_x(ptr noundef nonnull align 8 dereferenceable(8) %0, ptr noundef nonnull align 8 dereferenceable(8) %1, i64 noundef %2) #5 align 2 {
  %4 = alloca i1, align 1
  %5 = alloca ptr, align 8
  %6 = alloca ptr, align 8
  %7 = alloca i64, align 8
  %8 = alloca ptr, align 8
  %9 = alloca ptr, align 8
  store ptr %0, ptr %5, align 8
  store ptr %1, ptr %6, align 8
  store i64 %2, ptr %7, align 8
  %10 = load ptr, ptr %5, align 8
  %11 = call noundef ptr @_ZNK6casadi6SXElem3getEv(ptr noundef nonnull align 8 dereferenceable(8) %10)
  store ptr %11, ptr %8, align 8
  %12 = load ptr, ptr %6, align 8
  %13 = call noundef ptr @_ZNK6casadi6SXElem3getEv(ptr noundef nonnull align 8 dereferenceable(8) %12)
  store ptr %13, ptr %9, align 8
  %14 = load ptr, ptr %8, align 8
  %15 = load ptr, ptr %9, align 8
  %16 = icmp eq ptr %14, %15
  br i1 %16, label %17, label %18

17:                                               ; preds = %3
  store i1 true, ptr %4, align 1
  br label %30

18:                                               ; preds = %3
  %19 = load i64, ptr %7, align 8
  %20 = icmp sgt i64 %19, 0
  br i1 %20, label %21, label %29

21:                                               ; preds = %18
  %22 = load ptr, ptr %8, align 8
  %23 = load ptr, ptr %9, align 8
  %24 = load i64, ptr %7, align 8
  %25 = load ptr, ptr %22, align 8
  %26 = getelementptr inbounds ptr, ptr %25, i64 18
  %27 = load ptr, ptr %26, align 8
  %28 = call noundef zeroext i1 %27(ptr noundef nonnull align 8 dereferenceable(16) %22, ptr noundef %23, i64 noundef %24)
  store i1 %28, ptr %4, align 1
  br label %30

29:                                               ; preds = %18
  store i1 false, ptr %4, align 1
  br label %30

30:                                               ; preds = %29, %21, %17
  %31 = load i1, ptr %4, align 1
  ret i1 %31
}