; Function Attrs: mustprogress uwtable
define noundef zeroext i1 @_ZN6casadi6SXElem8is_equalERKS0_S2_x(ptr nocapture noundef nonnull readonly align 8 dereferenceable(8) %0, ptr nocapture noundef nonnull readonly align 8 dereferenceable(8) %1, i64 noundef %2) local_unnamed_addr #6 align 2 {
  %4 = load ptr, ptr %0, align 8
  %5 = load ptr, ptr %1, align 8
  %6 = icmp eq ptr %4, %5
  br i1 %6, label %14, label %7

7:                                                ; preds = %3
  %8 = icmp sgt i64 %2, 0
  br i1 %8, label %9, label %14

9:                                                ; preds = %7
  %10 = load ptr, ptr %4, align 8
  %11 = getelementptr inbounds i8, ptr %10, i64 144
  %12 = load ptr, ptr %11, align 8
  %13 = tail call noundef zeroext i1 %12(ptr noundef nonnull align 8 dereferenceable(16) %4, ptr noundef %5, i64 noundef %2)
  br label %14

14:                                               ; preds = %7, %3, %9
  %.0 = phi i1 [ %13, %9 ], [ true, %3 ], [ false, %7 ]
  ret i1 %.0
}